; Function Attrs: nounwind uwtable
define noalias noundef ptr @Abc_NtkGetLatchValues(ptr noundef readonly captures(none) %0) local_unnamed_addr #1 {
  %2 = getelementptr i8, ptr %0, i64 128
  %.val20 = load i32, ptr %2, align 8
  %3 = tail call noalias dereferenceable_or_null(16) ptr @malloc(i64 noundef 16) #18
  %4 = add i32 %.val20, -1
  %or.cond.i = icmp ult i32 %4, 15
  %spec.store.select.i = select i1 %or.cond.i, i32 16, i32 %.val20
  %5 = getelementptr inbounds nuw i8, ptr %3, i64 4
  store i32 0, ptr %5, align 4
  store i32 %spec.store.select.i, ptr %3, align 8
  %.not.i = icmp eq i32 %spec.store.select.i, 0
  br i1 %.not.i, label %Vec_IntAlloc.exit, label %6

6:                                                ; preds = %1
  %7 = sext i32 %spec.store.select.i to i64
  %8 = shl nsw i64 %7, 2
  %9 = tail call noalias ptr @malloc(i64 noundef %8) #18
  br label %Vec_IntAlloc.exit

Vec_IntAlloc.exit:                                ; preds = %1, %6
  %10 = phi ptr [ %9, %6 ], [ null, %1 ]
  %11 = getelementptr inbounds nuw i8, ptr %3, i64 8
  store ptr %10, ptr %11, align 8
  %12 = getelementptr inbounds nuw i8, ptr %0, i64 80
  %13 = load ptr, ptr %12, align 8
  %14 = getelementptr i8, ptr %13, i64 4
  %.val40 = load i32, ptr %14, align 4
  %15 = icmp sgt i32 %.val40, 0
  br i1 %15, label %.lr.ph, label %.critedge

.lr.ph:                                           ; preds = %Vec_IntAlloc.exit, %99
  %indvars.iv = phi i64 [ %indvars.iv.next, %99 ], [ 0, %Vec_IntAlloc.exit ]
  %16 = phi ptr [ %100, %99 ], [ %13, %Vec_IntAlloc.exit ]
  %17 = getelementptr i8, ptr %16, i64 8
  %.val16.val = load ptr, ptr %17, align 8
  %18 = getelementptr inbounds nuw ptr, ptr %.val16.val, i64 %indvars.iv
  %19 = load ptr, ptr %18, align 8
  %20 = getelementptr i8, ptr %19, i64 20
  %.val17 = load i32, ptr %20, align 4
  %21 = and i32 %.val17, 15
  %.not = icmp eq i32 %21, 8
  br i1 %.not, label %22, label %99

22:                                               ; preds = %.lr.ph
  %23 = getelementptr i8, ptr %19, i64 56
  %.val21 = load ptr, ptr %23, align 8
  %magicptr39 = ptrtoint ptr %.val21 to i64
  switch i64 %magicptr39, label %99 [
    i64 1, label %24
    i64 2, label %48
    i64 3, label %72
  ]

24:                                               ; preds = %22
  %25 = load i32, ptr %5, align 4
  %26 = load i32, ptr %3, align 8
  %27 = icmp eq i32 %25, %26
  br i1 %27, label %28, label %.Vec_IntGrow.exit10_crit_edge.i

.Vec_IntGrow.exit10_crit_edge.i:                  ; preds = %24
  %.pre.i = load ptr, ptr %11, align 8
  br label %.sink.split

28:                                               ; preds = %24
  %29 = icmp slt i32 %25, 16
  br i1 %29, label %30, label %37

30:                                               ; preds = %28
  %31 = load ptr, ptr %11, align 8
  %.not9.i.i = icmp eq ptr %31, null
  br i1 %.not9.i.i, label %34, label %32

32:                                               ; preds = %30
  %33 = tail call dereferenceable_or_null(64) ptr @realloc(ptr noundef nonnull %31, i64 noundef 64) #17
  br label %Vec_IntGrow.exit.i

34:                                               ; preds = %30
  %35 = tail call noalias dereferenceable_or_null(64) ptr @malloc(i64 noundef 64) #18
  br label %Vec_IntGrow.exit.i

Vec_IntGrow.exit.i:                               ; preds = %34, %32
  %36 = phi ptr [ %33, %32 ], [ %35, %34 ]
  store ptr %36, ptr %11, align 8
  store i32 16, ptr %3, align 8
  br label %.sink.split

37:                                               ; preds = %28
  %38 = shl nuw nsw i32 %25, 1
  %39 = load ptr, ptr %11, align 8
  %.not9.i9.i = icmp eq ptr %39, null
  %40 = zext nneg i32 %38 to i64
  %41 = shl nuw nsw i64 %40, 2
  br i1 %.not9.i9.i, label %44, label %42

42:                                               ; preds = %37
  %43 = tail call ptr @realloc(ptr noundef nonnull %39, i64 noundef %41) #17
  br label %46

44:                                               ; preds = %37
  %45 = tail call noalias ptr @malloc(i64 noundef %41) #18
  br label %46

46:                                               ; preds = %44, %42
  %47 = phi ptr [ %43, %42 ], [ %45, %44 ]
  store ptr %47, ptr %11, align 8
  store i32 %38, ptr %3, align 8
  br label %.sink.split

48:                                               ; preds = %22
  %49 = load i32, ptr %5, align 4
  %50 = load i32, ptr %3, align 8
  %51 = icmp eq i32 %49, %50
  br i1 %51, label %52, label %.Vec_IntGrow.exit10_crit_edge.i22

.Vec_IntGrow.exit10_crit_edge.i22:                ; preds = %48
  %.pre.i24 = load ptr, ptr %11, align 8
  br label %.sink.split

52:                                               ; preds = %48
  %53 = icmp slt i32 %49, 16
  br i1 %53, label %54, label %61

54:                                               ; preds = %52
  %55 = load ptr, ptr %11, align 8
  %.not9.i.i26 = icmp eq ptr %55, null
  br i1 %.not9.i.i26, label %58, label %56

56:                                               ; preds = %54
  %57 = tail call dereferenceable_or_null(64) ptr @realloc(ptr noundef nonnull %55, i64 noundef 64) #17
  br label %Vec_IntGrow.exit.i27

58:                                               ; preds = %54
  %59 = tail call noalias dereferenceable_or_null(64) ptr @malloc(i64 noundef 64) #18
  br label %Vec_IntGrow.exit.i27

Vec_IntGrow.exit.i27:                             ; preds = %58, %56
  %60 = phi ptr [ %57, %56 ], [ %59, %58 ]
  store ptr %60, ptr %11, align 8
  store i32 16, ptr %3, align 8
  br label %.sink.split

61:                                               ; preds = %52
  %62 = shl nuw nsw i32 %49, 1
  %63 = load ptr, ptr %11, align 8
  %.not9.i9.i25 = icmp eq ptr %63, null
  %64 = zext nneg i32 %62 to i64
  %65 = shl nuw nsw i64 %64, 2
  br i1 %.not9.i9.i25, label %68, label %66

66:                                               ; preds = %61
  %67 = tail call ptr @realloc(ptr noundef nonnull %63, i64 noundef %65) #17
  br label %70

68:                                               ; preds = %61
  %69 = tail call noalias ptr @malloc(i64 noundef %65) #18
  br label %70

70:                                               ; preds = %68, %66
  %71 = phi ptr [ %67, %66 ], [ %69, %68 ]
  store ptr %71, ptr %11, align 8
  store i32 %62, ptr %3, align 8
  br label %.sink.split

72:                                               ; preds = %22
  %73 = load i32, ptr %5, align 4
  %74 = load i32, ptr %3, align 8
  %75 = icmp eq i32 %73, %74
  br i1 %75, label %76, label %.Vec_IntGrow.exit10_crit_edge.i29

.Vec_IntGrow.exit10_crit_edge.i29:                ; preds = %72
  %.pre.i31 = load ptr, ptr %11, align 8
  br label %.sink.split

76:                                               ; preds = %72
  %77 = icmp slt i32 %73, 16
  br i1 %77, label %78, label %85

78:                                               ; preds = %76
  %79 = load ptr, ptr %11, align 8
  %.not9.i.i33 = icmp eq ptr %79, null
  br i1 %.not9.i.i33, label %82, label %80

80:                                               ; preds = %78
  %81 = tail call dereferenceable_or_null(64) ptr @realloc(ptr noundef nonnull %79, i64 noundef 64) #17
  br label %Vec_IntGrow.exit.i34

82:                                               ; preds = %78
  %83 = tail call noalias dereferenceable_or_null(64) ptr @malloc(i64 noundef 64) #18
  br label %Vec_IntGrow.exit.i34

Vec_IntGrow.exit.i34:                             ; preds = %82, %80
  %84 = phi ptr [ %81, %80 ], [ %83, %82 ]
  store ptr %84, ptr %11, align 8
  store i32 16, ptr %3, align 8
  br label %.sink.split

85:                                               ; preds = %76
  %86 = shl nuw nsw i32 %73, 1
  %87 = load ptr, ptr %11, align 8
  %.not9.i9.i32 = icmp eq ptr %87, null
  %88 = zext nneg i32 %86 to i64
  %89 = shl nuw nsw i64 %88, 2
  br i1 %.not9.i9.i32, label %92, label %90

90:                                               ; preds = %85
  %91 = tail call ptr @realloc(ptr noundef nonnull %87, i64 noundef %89) #17
  br label %94

92:                                               ; preds = %85
  %93 = tail call noalias ptr @malloc(i64 noundef %89) #18
  br label %94

94:                                               ; preds = %92, %90
  %95 = phi ptr [ %91, %90 ], [ %93, %92 ]
  store ptr %95, ptr %11, align 8
  store i32 %86, ptr %3, align 8
  br label %.sink.split

.sink.split:                                      ; preds = %94, %Vec_IntGrow.exit.i34, %.Vec_IntGrow.exit10_crit_edge.i29, %70, %Vec_IntGrow.exit.i27, %.Vec_IntGrow.exit10_crit_edge.i22, %46, %Vec_IntGrow.exit.i, %.Vec_IntGrow.exit10_crit_edge.i
  %.sink48 = phi i32 [ %25, %.Vec_IntGrow.exit10_crit_edge.i ], [ %25, %Vec_IntGrow.exit.i ], [ %25, %46 ], [ %49, %.Vec_IntGrow.exit10_crit_edge.i22 ], [ %49, %Vec_IntGrow.exit.i27 ], [ %49, %70 ], [ %73, %.Vec_IntGrow.exit10_crit_edge.i29 ], [ %73, %Vec_IntGrow.exit.i34 ], [ %73, %94 ]
  %.sink44 = phi ptr [ %.pre.i, %.Vec_IntGrow.exit10_crit_edge.i ], [ %36, %Vec_IntGrow.exit.i ], [ %47, %46 ], [ %.pre.i24, %.Vec_IntGrow.exit10_crit_edge.i22 ], [ %60, %Vec_IntGrow.exit.i27 ], [ %71, %70 ], [ %.pre.i31, %.Vec_IntGrow.exit10_crit_edge.i29 ], [ %84, %Vec_IntGrow.exit.i34 ], [ %95, %94 ]
  %.sink = phi i32 [ 0, %.Vec_IntGrow.exit10_crit_edge.i ], [ 0, %Vec_IntGrow.exit.i ], [ 0, %46 ], [ 1, %.Vec_IntGrow.exit10_crit_edge.i22 ], [ 1, %Vec_IntGrow.exit.i27 ], [ 1, %70 ], [ 2, %.Vec_IntGrow.exit10_crit_edge.i29 ], [ 2, %Vec_IntGrow.exit.i34 ], [ 2, %94 ]
  %96 = add nsw i32 %.sink48, 1
  store i32 %96, ptr %5, align 4
  %97 = sext i32 %.sink48 to i64
  %98 = getelementptr inbounds i32, ptr %.sink44, i64 %97
  store i32 %.sink, ptr %98, align 4
  br label %99

99:                                               ; preds = %.sink.split, %22, %.lr.ph
  %indvars.iv.next = add nuw nsw i64 %indvars.iv, 1
  %100 = load ptr, ptr %12, align 8
  %101 = getelementptr i8, ptr %100, i64 4
  %.val = load i32, ptr %101, align 4
  %102 = sext i32 %.val to i64
  %103 = icmp slt i64 %indvars.iv.next, %102
  br i1 %103, label %.lr.ph, label %.critedge, !llvm.loop !77

.critedge:                                        ; preds = %99, %Vec_IntAlloc.exit
  ret ptr %3
}